target datalayout = "e-m:e-p270:32:32-p271:32:32-p272:64:64-i64:64-i128:128-f80:128-n8:16:32:64-S128"
target triple = "x86_64-pc-linux-gnu"

%struct.H5VL_connector_t = type { ptr, i64, ptr, ptr }
%struct.H5CX_node_t = type { %struct.H5CX_t, ptr }
%struct.H5CX_t = type { i64, ptr, i64, ptr, i64, ptr, i64, ptr, i64, ptr, i64, ptr, i64, i32, i64, i8, ptr, i8, ptr, i8, i32, i8, [3 x double], i8, i64, i8, i32, i8, %struct.H5Z_cb_t, i8, ptr, i8, %struct.H5T_vlen_alloc_info_t, i8, %struct.H5T_conv_cb_t, i8, i32, i8, i8, i8, i32, i8, i8, i32, i8, i8, i32, i8, i32, i8, i64, i8, i8, i8, i8, i8, ptr, i8, ptr, i8, i32, i8, i32, i8, %struct.H5VL_connector_prop_t, i8, ptr, i8 }
%struct.H5Z_cb_t = type { ptr, ptr }
%struct.H5T_vlen_alloc_info_t = type { ptr, ptr, ptr, ptr }
%struct.H5T_conv_cb_t = type { ptr, ptr }
%struct.H5VL_connector_prop_t = type { ptr, ptr }

@.str = private unnamed_addr constant [106 x i8] c"generated/home/dtcxzyw/WorkSpace/Projects/compilers/llvm-opt-benchmark/bench/hdf5/hdf5/src/H5VLcallback.c\00", align 1
@H5E_ARGS_g = external global i64, align 8
@H5E_BADTYPE_g = external global i64, align 8
@.str.1 = private unnamed_addr constant [23 x i8] c"not a VOL connector ID\00", align 1
@H5E_CANTSET_g = external global i64, align 8
@H5E_VOL_g = external global i64, align 8
@H5VL_init_g = external global i8, align 1
@H5_libterm_g = external global i8, align 1
@H5E_FUNC_g = external global i64, align 8
@H5E_CANTINIT_g = external global i64, align 8
@.str.5 = private unnamed_addr constant [32 x i8] c"interface initialization failed\00", align 1
@H5_libinit_g = external global i8, align 1
@.str.11 = private unnamed_addr constant [30 x i8] c"library initialization failed\00", align 1
@.str.12 = private unnamed_addr constant [22 x i8] c"can't set API context\00", align 1
@H5E_BADVALUE_g = external global i64, align 8
@H5E_CANTOPERATE_g = external global i64, align 8
@__func__.H5VLrequest_optional_op = private unnamed_addr constant [24 x i8] c"H5VLrequest_optional_op\00", align 1
@.str.151 = private unnamed_addr constant [16 x i8] c"invalid request\00", align 1
@.str.152 = private unnamed_addr constant [18 x i8] c"invalid arguments\00", align 1
@.str.153 = private unnamed_addr constant [44 x i8] c"unable to execute request optional callback\00", align 1

; Function Attrs: nounwind uwtable
define i32 @H5VLrequest_optional_op(ptr noundef %0, i64 noundef %1, ptr noundef %2) #0 {
  %4 = alloca ptr, align 8
  %5 = alloca i64, align 8
  %6 = alloca ptr, align 8
  %7 = alloca ptr, align 8
  %8 = alloca i32, align 4
  %9 = alloca %struct.H5CX_node_t, align 8
  %10 = alloca i8, align 1
  %11 = alloca i8, align 1
  store ptr %0, ptr %4, align 8, !tbaa !42
  store i64 %1, ptr %5, align 8, !tbaa !3
  store ptr %2, ptr %6, align 8, !tbaa !75
  call void @llvm.lifetime.start.p0(i64 8, ptr %7) #8
  call void @llvm.lifetime.start.p0(i64 4, ptr %8) #8
  store i32 0, ptr %8, align 4, !tbaa !7
  call void @llvm.lifetime.start.p0(i64 480, ptr %9) #8
  call void @llvm.memset.p0.i64(ptr align 8 %9, i8 0, i64 480, i1 false)
  call void @llvm.lifetime.start.p0(i64 1, ptr %10) #8
  store i8 0, ptr %10, align 1, !tbaa !9
  call void @llvm.lifetime.start.p0(i64 1, ptr %11) #8
  store i8 0, ptr %11, align 1, !tbaa !9
  br label %12

12:                                               ; preds = %3
  %13 = load i8, ptr @H5_libinit_g, align 1, !tbaa !9, !range !14, !noundef !15
  %14 = trunc i8 %13 to i1
  br i1 %14, label %19, label %15

15:                                               ; preds = %12
  %16 = load i8, ptr @H5_libterm_g, align 1, !tbaa !9, !range !14, !noundef !15
  %17 = trunc i8 %16 to i1
  %18 = xor i1 %17, true
  br label %19

19:                                               ; preds = %15, %12
  %20 = phi i1 [ false, %12 ], [ %18, %15 ]
  %21 = xor i1 %20, true
  %22 = xor i1 %21, true
  %23 = zext i1 %22 to i32
  %24 = sext i32 %23 to i64
  %25 = call i64 @llvm.expect.i64(i64 %24, i64 0)
  %26 = icmp ne i64 %25, 0
  br i1 %26, label %27, label %56

27:                                               ; preds = %19
  %28 = call i32 @H5_init_library()
  %29 = icmp slt i32 %28, 0
  %30 = xor i1 %29, true
  %31 = xor i1 %30, true
  %32 = zext i1 %31 to i32
  %33 = sext i32 %32 to i64
  %34 = call i64 @llvm.expect.i64(i64 %33, i64 0)
  %35 = icmp ne i64 %34, 0
  br i1 %35, label %36, label %55

36:                                               ; preds = %27
  br label %37

37:                                               ; preds = %36
  br label %38

38:                                               ; preds = %37
  br label %39

39:                                               ; preds = %38
  %40 = load i64, ptr @H5E_FUNC_g, align 8, !tbaa !3
  %41 = load i64, ptr @H5E_CANTINIT_g, align 8, !tbaa !3
  %42 = call i32 (ptr, ptr, i32, i64, i64, ptr, ...) @H5E_printf_stack(ptr noundef @.str, ptr noundef @__func__.H5VLrequest_optional_op, i32 noundef 7264, i64 noundef %40, i64 noundef %41, ptr noundef @.str.11)
  br label %43

43:                                               ; preds = %39
  br label %44

44:                                               ; preds = %43
  store i8 1, ptr %11, align 1, !tbaa !9
  %45 = load i8, ptr %11, align 1, !tbaa !9, !range !14, !noundef !15
  %46 = trunc i8 %45 to i1
  %47 = zext i1 %46 to i8
  store i8 %47, ptr %11, align 1, !tbaa !9
  br label %48

48:                                               ; preds = %44
  br label %49

49:                                               ; preds = %48
  br label %50

50:                                               ; preds = %49
  store i32 -1, ptr %8, align 4, !tbaa !7
  br label %224

51:                                               ; No predecessors!
  br label %52

52:                                               ; preds = %51
  br label %53

53:                                               ; preds = %52
  br label %54

54:                                               ; preds = %53
  br label %55

55:                                               ; preds = %54, %27
  br label %56

56:                                               ; preds = %55, %19
  %57 = load i8, ptr @H5VL_init_g, align 1, !tbaa !9, !range !14, !noundef !15
  %58 = trunc i8 %57 to i1
  br i1 %58, label %63, label %59

59:                                               ; preds = %56
  %60 = load i8, ptr @H5_libterm_g, align 1, !tbaa !9, !range !14, !noundef !15
  %61 = trunc i8 %60 to i1
  %62 = xor i1 %61, true
  br label %63

63:                                               ; preds = %59, %56
  %64 = phi i1 [ false, %56 ], [ %62, %59 ]
  %65 = xor i1 %64, true
  %66 = xor i1 %65, true
  %67 = zext i1 %66 to i32
  %68 = sext i32 %67 to i64
  %69 = call i64 @llvm.expect.i64(i64 %68, i64 0)
  %70 = icmp ne i64 %69, 0
  br i1 %70, label %71, label %94

71:                                               ; preds = %63
  store i8 1, ptr @H5VL_init_g, align 1, !tbaa !9
  %72 = call i32 @H5VL__init_package()
  %73 = icmp slt i32 %72, 0
  br i1 %73, label %74, label %93

74:                                               ; preds = %71
  store i8 0, ptr @H5VL_init_g, align 1, !tbaa !9
  br label %75

75:                                               ; preds = %74
  br label %76

76:                                               ; preds = %75
  br label %77

77:                                               ; preds = %76
  %78 = load i64, ptr @H5E_FUNC_g, align 8, !tbaa !3
  %79 = load i64, ptr @H5E_CANTINIT_g, align 8, !tbaa !3
  %80 = call i32 (ptr, ptr, i32, i64, i64, ptr, ...) @H5E_printf_stack(ptr noundef @.str, ptr noundef @__func__.H5VLrequest_optional_op, i32 noundef 7264, i64 noundef %78, i64 noundef %79, ptr noundef @.str.5)
  br label %81

81:                                               ; preds = %77
  br label %82

82:                                               ; preds = %81
  store i8 1, ptr %11, align 1, !tbaa !9
  %83 = load i8, ptr %11, align 1, !tbaa !9, !range !14, !noundef !15
  %84 = trunc i8 %83 to i1
  %85 = zext i1 %84 to i8
  store i8 %85, ptr %11, align 1, !tbaa !9
  br label %86

86:                                               ; preds = %82
  br label %87

87:                                               ; preds = %86
  br label %88

88:                                               ; preds = %87
  store i32 -1, ptr %8, align 4, !tbaa !7
  br label %224

89:                                               ; No predecessors!
  br label %90

90:                                               ; preds = %89
  br label %91

91:                                               ; preds = %90
  br label %92

92:                                               ; preds = %91
  br label %93

93:                                               ; preds = %92, %71
  br label %94

94:                                               ; preds = %93, %63
  br label %95

95:                                               ; preds = %94
  br label %96

96:                                               ; preds = %95
  br label %97

97:                                               ; preds = %96
  %98 = call i32 @H5CX_push(ptr noundef %9)
  %99 = icmp slt i32 %98, 0
  %100 = xor i1 %99, true
  %101 = xor i1 %100, true
  %102 = zext i1 %101 to i32
  %103 = sext i32 %102 to i64
  %104 = call i64 @llvm.expect.i64(i64 %103, i64 0)
  %105 = icmp ne i64 %104, 0
  br i1 %105, label %106, label %125

106:                                              ; preds = %97
  br label %107

107:                                              ; preds = %106
  br label %108

108:                                              ; preds = %107
  br label %109

109:                                              ; preds = %108
  %110 = load i64, ptr @H5E_FUNC_g, align 8, !tbaa !3
  %111 = load i64, ptr @H5E_CANTSET_g, align 8, !tbaa !3
  %112 = call i32 (ptr, ptr, i32, i64, i64, ptr, ...) @H5E_printf_stack(ptr noundef @.str, ptr noundef @__func__.H5VLrequest_optional_op, i32 noundef 7264, i64 noundef %110, i64 noundef %111, ptr noundef @.str.12)
  br label %113

113:                                              ; preds = %109
  br label %114

114:                                              ; preds = %113
  store i8 1, ptr %11, align 1, !tbaa !9
  %115 = load i8, ptr %11, align 1, !tbaa !9, !range !14, !noundef !15
  %116 = trunc i8 %115 to i1
  %117 = zext i1 %116 to i8
  store i8 %117, ptr %11, align 1, !tbaa !9
  br label %118

118:                                              ; preds = %114
  br label %119

119:                                              ; preds = %118
  br label %120

120:                                              ; preds = %119
  store i32 -1, ptr %8, align 4, !tbaa !7
  br label %224

121:                                              ; No predecessors!
  br label %122

122:                                              ; preds = %121
  br label %123

123:                                              ; preds = %122
  br label %124

124:                                              ; preds = %123
  br label %126

125:                                              ; preds = %97
  store i8 1, ptr %10, align 1, !tbaa !9
  br label %126

126:                                              ; preds = %125, %124
  br label %127

127:                                              ; preds = %126
  br label %128

128:                                              ; preds = %127
  %129 = call i32 @H5E_clear_stack()
  %130 = load ptr, ptr %4, align 8, !tbaa !42
  %131 = icmp eq ptr null, %130
  br i1 %131, label %132, label %151

132:                                              ; preds = %128
  br label %133

133:                                              ; preds = %132
  br label %134

134:                                              ; preds = %133
  br label %135

135:                                              ; preds = %134
  %136 = load i64, ptr @H5E_ARGS_g, align 8, !tbaa !3
  %137 = load i64, ptr @H5E_BADVALUE_g, align 8, !tbaa !3
  %138 = call i32 (ptr, ptr, i32, i64, i64, ptr, ...) @H5E_printf_stack(ptr noundef @.str, ptr noundef @__func__.H5VLrequest_optional_op, i32 noundef 7268, i64 noundef %136, i64 noundef %137, ptr noundef @.str.151)
  br label %139

139:                                              ; preds = %135
  br label %140

140:                                              ; preds = %139
  store i8 1, ptr %11, align 1, !tbaa !9
  %141 = load i8, ptr %11, align 1, !tbaa !9, !range !14, !noundef !15
  %142 = trunc i8 %141 to i1
  %143 = zext i1 %142 to i8
  store i8 %143, ptr %11, align 1, !tbaa !9
  br label %144

144:                                              ; preds = %140
  br label %145

145:                                              ; preds = %144
  br label %146

146:                                              ; preds = %145
  store i32 -1, ptr %8, align 4, !tbaa !7
  br label %224

147:                                              ; No predecessors!
  br label %148

148:                                              ; preds = %147
  br label %149

149:                                              ; preds = %148
  br label %150

150:                                              ; preds = %149
  br label %151

151:                                              ; preds = %150, %128
  %152 = load ptr, ptr %6, align 8, !tbaa !75
  %153 = icmp eq ptr null, %152
  br i1 %153, label %154, label %173

154:                                              ; preds = %151
  br label %155

155:                                              ; preds = %154
  br label %156

156:                                              ; preds = %155
  br label %157

157:                                              ; preds = %156
  %158 = load i64, ptr @H5E_ARGS_g, align 8, !tbaa !3
  %159 = load i64, ptr @H5E_BADVALUE_g, align 8, !tbaa !3
  %160 = call i32 (ptr, ptr, i32, i64, i64, ptr, ...) @H5E_printf_stack(ptr noundef @.str, ptr noundef @__func__.H5VLrequest_optional_op, i32 noundef 7270, i64 noundef %158, i64 noundef %159, ptr noundef @.str.152)
  br label %161

161:                                              ; preds = %157
  br label %162

162:                                              ; preds = %161
  store i8 1, ptr %11, align 1, !tbaa !9
  %163 = load i8, ptr %11, align 1, !tbaa !9, !range !14, !noundef !15
  %164 = trunc i8 %163 to i1
  %165 = zext i1 %164 to i8
  store i8 %165, ptr %11, align 1, !tbaa !9
  br label %166

166:                                              ; preds = %162
  br label %167

167:                                              ; preds = %166
  br label %168

168:                                              ; preds = %167
  store i32 -1, ptr %8, align 4, !tbaa !7
  br label %224

169:                                              ; No predecessors!
  br label %170

170:                                              ; preds = %169
  br label %171

171:                                              ; preds = %170
  br label %172

172:                                              ; preds = %171
  br label %173

173:                                              ; preds = %172, %151
  %174 = load i64, ptr %5, align 8, !tbaa !3
  %175 = call ptr @H5I_object_verify(i64 noundef %174, i32 noundef 9)
  store ptr %175, ptr %7, align 8, !tbaa !11
  %176 = icmp eq ptr null, %175
  br i1 %176, label %177, label %196

177:                                              ; preds = %173
  br label %178

178:                                              ; preds = %177
  br label %179

179:                                              ; preds = %178
  br label %180

180:                                              ; preds = %179
  %181 = load i64, ptr @H5E_ARGS_g, align 8, !tbaa !3
  %182 = load i64, ptr @H5E_BADTYPE_g, align 8, !tbaa !3
  %183 = call i32 (ptr, ptr, i32, i64, i64, ptr, ...) @H5E_printf_stack(ptr noundef @.str, ptr noundef @__func__.H5VLrequest_optional_op, i32 noundef 7274, i64 noundef %181, i64 noundef %182, ptr noundef @.str.1)
  br label %184

184:                                              ; preds = %180
  br label %185

185:                                              ; preds = %184
  store i8 1, ptr %11, align 1, !tbaa !9
  %186 = load i8, ptr %11, align 1, !tbaa !9, !range !14, !noundef !15
  %187 = trunc i8 %186 to i1
  %188 = zext i1 %187 to i8
  store i8 %188, ptr %11, align 1, !tbaa !9
  br label %189

189:                                              ; preds = %185
  br label %190

190:                                              ; preds = %189
  br label %191

191:                                              ; preds = %190
  store i32 -1, ptr %8, align 4, !tbaa !7
  br label %224

192:                                              ; No predecessors!
  br label %193

193:                                              ; preds = %192
  br label %194

194:                                              ; preds = %193
  br label %195

195:                                              ; preds = %194
  br label %196

196:                                              ; preds = %195, %173
  %197 = load ptr, ptr %4, align 8, !tbaa !42
  %198 = load ptr, ptr %7, align 8, !tbaa !11
  %199 = getelementptr inbounds nuw %struct.H5VL_connector_t, ptr %198, i32 0, i32 0
  %200 = load ptr, ptr %199, align 8, !tbaa !16
  %201 = load ptr, ptr %6, align 8, !tbaa !75
  %202 = call i32 @H5VL__request_optional(ptr noundef %197, ptr noundef %200, ptr noundef %201)
  %203 = icmp slt i32 %202, 0
  br i1 %203, label %204, label %223

204:                                              ; preds = %196
  br label %205

205:                                              ; preds = %204
  br label %206

206:                                              ; preds = %205
  br label %207

207:                                              ; preds = %206
  %208 = load i64, ptr @H5E_VOL_g, align 8, !tbaa !3
  %209 = load i64, ptr @H5E_CANTOPERATE_g, align 8, !tbaa !3
  %210 = call i32 (ptr, ptr, i32, i64, i64, ptr, ...) @H5E_printf_stack(ptr noundef @.str, ptr noundef @__func__.H5VLrequest_optional_op, i32 noundef 7278, i64 noundef %208, i64 noundef %209, ptr noundef @.str.153)
  br label %211

211:                                              ; preds = %207
  br label %212

212:                                              ; preds = %211
  store i8 1, ptr %11, align 1, !tbaa !9
  %213 = load i8, ptr %11, align 1, !tbaa !9, !range !14, !noundef !15
  %214 = trunc i8 %213 to i1
  %215 = zext i1 %214 to i8
  store i8 %215, ptr %11, align 1, !tbaa !9
  br label %216

216:                                              ; preds = %212
  br label %217

217:                                              ; preds = %216
  br label %218

218:                                              ; preds = %217
  store i32 -1, ptr %8, align 4, !tbaa !7
  br label %224

219:                                              ; No predecessors!
  br label %220

220:                                              ; preds = %219
  br label %221

221:                                              ; preds = %220
  br label %222

222:                                              ; preds = %221
  br label %223

223:                                              ; preds = %222, %196
  br label %224

224:                                              ; preds = %223, %218, %191, %168, %146, %120, %88, %50
  %225 = load i8, ptr %10, align 1, !tbaa !9, !range !14, !noundef !15
  %226 = trunc i8 %225 to i1
  %227 = xor i1 %226, true
  %228 = xor i1 %227, true
  %229 = zext i1 %228 to i32
  %230 = sext i32 %229 to i64
  %231 = call i64 @llvm.expect.i64(i64 %230, i64 1)
  %232 = icmp ne i64 %231, 0
  br i1 %232, label %233, label %235

233:                                              ; preds = %224
  %234 = call i32 @H5CX_pop(i1 noundef zeroext true)
  store i8 0, ptr %10, align 1, !tbaa !9
  br label %235

235:                                              ; preds = %233, %224
  %236 = load i8, ptr %11, align 1, !tbaa !9, !range !14, !noundef !15
  %237 = trunc i8 %236 to i1
  %238 = xor i1 %237, true
  %239 = xor i1 %238, true
  %240 = zext i1 %239 to i32
  %241 = sext i32 %240 to i64
  %242 = call i64 @llvm.expect.i64(i64 %241, i64 0)
  %243 = icmp ne i64 %242, 0
  br i1 %243, label %244, label %246

244:                                              ; preds = %235
  %245 = call i32 @H5E_dump_api_stack()
  br label %246

246:                                              ; preds = %244, %235
  %247 = load i32, ptr %8, align 4, !tbaa !7
  call void @llvm.lifetime.end.p0(i64 1, ptr %11) #8
  call void @llvm.lifetime.end.p0(i64 1, ptr %10) #8
  call void @llvm.lifetime.end.p0(i64 480, ptr %9) #8
  call void @llvm.lifetime.end.p0(i64 4, ptr %8) #8
  call void @llvm.lifetime.end.p0(i64 8, ptr %7) #8
  ret i32 %247
}