; Function Attrs: nounwind uwtable
define range(i32 -1, 1) i32 @H5VLrequest_optional_op(ptr noundef %0, i64 noundef %1, ptr noundef %2) local_unnamed_addr #0 {
  %4 = alloca %struct.H5CX_node_t, align 8
  call void @llvm.lifetime.start.p0(i64 480, ptr nonnull %4) #7
  call void @llvm.memset.p0.i64(ptr noundef nonnull align 8 dereferenceable(480) %4, i8 0, i64 480, i1 false)
  %5 = load i8, ptr @H5_libinit_g, align 1, !tbaa !33, !range !35, !noundef !36
  %6 = trunc nuw i8 %5 to i1
  %7 = load i8, ptr @H5_libterm_g, align 1, !range !35
  %8 = trunc nuw i8 %7 to i1
  %9 = select i1 %6, i1 true, i1 %8
  br i1 %9, label %17, label %10, !prof !37

10:                                               ; preds = %3
  %11 = tail call i32 @H5_init_library() #7
  %12 = icmp slt i32 %11, 0
  br i1 %12, label %13, label %._crit_edge, !prof !43

._crit_edge:                                      ; preds = %10
  %.pre = load i8, ptr @H5_libterm_g, align 1, !range !35
  br label %17

13:                                               ; preds = %10
  %14 = load i64, ptr @H5E_FUNC_g, align 8, !tbaa !3
  %15 = load i64, ptr @H5E_CANTINIT_g, align 8, !tbaa !3
  %16 = tail call i32 (ptr, ptr, i32, i64, i64, ptr, ...) @H5E_printf_stack(ptr noundef nonnull @.str, ptr noundef nonnull @__func__.H5VLrequest_optional_op, i32 noundef 7264, i64 noundef %14, i64 noundef %15, ptr noundef nonnull @.str.11) #7
  br label %.thread28

17:                                               ; preds = %._crit_edge, %3
  %18 = phi i8 [ %.pre, %._crit_edge ], [ %7, %3 ]
  %19 = load i8, ptr @H5VL_init_g, align 1, !tbaa !33, !range !35, !noundef !36
  %20 = trunc nuw i8 %19 to i1
  %21 = trunc nuw i8 %18 to i1
  %22 = select i1 %20, i1 true, i1 %21
  br i1 %22, label %30, label %23, !prof !37

23:                                               ; preds = %17
  store i8 1, ptr @H5VL_init_g, align 1, !tbaa !33
  %24 = tail call i32 @H5VL__init_package() #7
  %25 = icmp slt i32 %24, 0
  br i1 %25, label %26, label %30, !prof !41

26:                                               ; preds = %23
  store i8 0, ptr @H5VL_init_g, align 1, !tbaa !33
  %27 = load i64, ptr @H5E_FUNC_g, align 8, !tbaa !3
  %28 = load i64, ptr @H5E_CANTINIT_g, align 8, !tbaa !3
  %29 = tail call i32 (ptr, ptr, i32, i64, i64, ptr, ...) @H5E_printf_stack(ptr noundef nonnull @.str, ptr noundef nonnull @__func__.H5VLrequest_optional_op, i32 noundef 7264, i64 noundef %27, i64 noundef %28, ptr noundef nonnull @.str.5) #7
  br label %.thread28

30:                                               ; preds = %17, %23
  %31 = call i32 @H5CX_push(ptr noundef nonnull %4) #7
  %32 = icmp slt i32 %31, 0
  br i1 %32, label %33, label %37, !prof !43

33:                                               ; preds = %30
  %34 = load i64, ptr @H5E_FUNC_g, align 8, !tbaa !3
  %35 = load i64, ptr @H5E_CANTSET_g, align 8, !tbaa !3
  %36 = call i32 (ptr, ptr, i32, i64, i64, ptr, ...) @H5E_printf_stack(ptr noundef nonnull @.str, ptr noundef nonnull @__func__.H5VLrequest_optional_op, i32 noundef 7264, i64 noundef %34, i64 noundef %35, ptr noundef nonnull @.str.12) #7
  br label %.thread28

37:                                               ; preds = %30
  %38 = call i32 @H5E_clear_stack() #7
  %39 = icmp eq ptr %0, null
  br i1 %39, label %40, label %44, !prof !44

40:                                               ; preds = %37
  %41 = load i64, ptr @H5E_ARGS_g, align 8, !tbaa !3
  %42 = load i64, ptr @H5E_BADVALUE_g, align 8, !tbaa !3
  %43 = call i32 (ptr, ptr, i32, i64, i64, ptr, ...) @H5E_printf_stack(ptr noundef nonnull @.str, ptr noundef nonnull @__func__.H5VLrequest_optional_op, i32 noundef 7268, i64 noundef %41, i64 noundef %42, ptr noundef nonnull @.str.151) #7
  br label %.thread34

44:                                               ; preds = %37
  %45 = icmp eq ptr %2, null
  br i1 %45, label %46, label %50, !prof !44

46:                                               ; preds = %44
  %47 = load i64, ptr @H5E_ARGS_g, align 8, !tbaa !3
  %48 = load i64, ptr @H5E_BADVALUE_g, align 8, !tbaa !3
  %49 = call i32 (ptr, ptr, i32, i64, i64, ptr, ...) @H5E_printf_stack(ptr noundef nonnull @.str, ptr noundef nonnull @__func__.H5VLrequest_optional_op, i32 noundef 7270, i64 noundef %47, i64 noundef %48, ptr noundef nonnull @.str.152) #7
  br label %.thread34

50:                                               ; preds = %44
  %51 = call ptr @H5I_object_verify(i64 noundef %1, i32 noundef 9) #7
  %52 = icmp eq ptr %51, null
  br i1 %52, label %53, label %57, !prof !44

53:                                               ; preds = %50
  %54 = load i64, ptr @H5E_ARGS_g, align 8, !tbaa !3
  %55 = load i64, ptr @H5E_BADTYPE_g, align 8, !tbaa !3
  %56 = call i32 (ptr, ptr, i32, i64, i64, ptr, ...) @H5E_printf_stack(ptr noundef nonnull @.str, ptr noundef nonnull @__func__.H5VLrequest_optional_op, i32 noundef 7274, i64 noundef %54, i64 noundef %55, ptr noundef nonnull @.str.1) #7
  br label %.thread34

57:                                               ; preds = %50
  %58 = load ptr, ptr %51, align 8, !tbaa !7
  %59 = call fastcc i32 @H5VL__request_optional(ptr noundef nonnull %0, ptr noundef %58, ptr noundef nonnull %2)
  %60 = icmp slt i32 %59, 0
  br i1 %60, label %61, label %66, !prof !44

61:                                               ; preds = %57
  %62 = load i64, ptr @H5E_VOL_g, align 8, !tbaa !3
  %63 = load i64, ptr @H5E_CANTOPERATE_g, align 8, !tbaa !3
  %64 = call i32 (ptr, ptr, i32, i64, i64, ptr, ...) @H5E_printf_stack(ptr noundef nonnull @.str, ptr noundef nonnull @__func__.H5VLrequest_optional_op, i32 noundef 7278, i64 noundef %62, i64 noundef %63, ptr noundef nonnull @.str.153) #7
  br label %.thread34

.thread34:                                        ; preds = %61, %53, %46, %40
  %65 = call i32 @H5CX_pop(i1 noundef zeroext true) #7
  br label %.thread28

66:                                               ; preds = %57
  %67 = call i32 @H5CX_pop(i1 noundef zeroext true) #7
  br label %69

.thread28:                                        ; preds = %33, %26, %13, %.thread34
  %68 = call i32 @H5E_dump_api_stack() #7
  br label %69

69:                                               ; preds = %66, %.thread28
  %.0162331 = phi i32 [ -1, %.thread28 ], [ 0, %66 ]
  call void @llvm.lifetime.end.p0(i64 480, ptr nonnull %4) #7
  ret i32 %.0162331
}